target datalayout = "e-m:e-p270:32:32-p271:32:32-p272:64:64-i64:64-i128:128-f80:128-n8:16:32:64-S128"
target triple = "x86_64-pc-linux-gnu"

%"struct.cv::utils::trace::details::Region::LocationStaticStorage" = type { ptr, ptr, ptr, i32, i32 }
%"class.cv::utils::trace::details::Region" = type <{ ptr, i32, [4 x i8] }>
%"class.std::__cxx11::basic_string" = type { %"struct.std::__cxx11::basic_string<char>::_Alloc_hider", i64, %union.anon }
%"struct.std::__cxx11::basic_string<char>::_Alloc_hider" = type { ptr }
%union.anon = type { i64, [8 x i8] }

@_ZZN2cv3hal11cvtBGRtoYUVEPKhmPhmiiiibbE24__cv_trace_location_fn26 = internal constant %"struct.cv::utils::trace::details::Region::LocationStaticStorage" { ptr @_ZZN2cv3hal11cvtBGRtoYUVEPKhmPhmiiiibbE30__cv_trace_location_extra_fn26, ptr @.str.10, ptr @.str.11, i32 26, i32 1 }, align 8
@.str.11 = private unnamed_addr constant [134 x i8] c"generated/home/dtcxzyw/WorkSpace/Projects/compilers/llvm-opt-benchmark/bench/opencv/opencv/modules/imgproc/src/color_yuv.dispatch.cpp\00", align 1
@.str.12 = private unnamed_addr constant [75 x i8] c"HAL implementation cvtBGRtoYUV ==> hal_ni_cvtBGRtoYUV returned %d (0x%08x)\00", align 1
@__func__._ZN2cv3hal11cvtBGRtoYUVEPKhmPhmiiiibb = private unnamed_addr constant [12 x i8] c"cvtBGRtoYUV\00", align 1

; Function Attrs: mustprogress nounwind uwtable
define linkonce_odr hidden noundef i32 @_Z18hal_ni_cvtBGRtoYUVPKhmPhmiiiibb(ptr noundef %0, i64 noundef %1, ptr noundef %2, i64 noundef %3, i32 noundef %4, i32 noundef %5, i32 noundef %6, i32 noundef %7, i1 noundef zeroext %8, i1 noundef zeroext %9) #2 comdat {
  %11 = alloca ptr, align 8
  %12 = alloca i64, align 8
  %13 = alloca ptr, align 8
  %14 = alloca i64, align 8
  %15 = alloca i32, align 4
  %16 = alloca i32, align 4
  %17 = alloca i32, align 4
  %18 = alloca i32, align 4
  %19 = alloca i8, align 1
  %20 = alloca i8, align 1
  store ptr %0, ptr %11, align 8
  store i64 %1, ptr %12, align 8
  store ptr %2, ptr %13, align 8
  store i64 %3, ptr %14, align 8
  store i32 %4, ptr %15, align 4
  store i32 %5, ptr %16, align 4
  store i32 %6, ptr %17, align 4
  store i32 %7, ptr %18, align 4
  %21 = zext i1 %8 to i8
  store i8 %21, ptr %19, align 1
  %22 = zext i1 %9 to i8
  store i8 %22, ptr %20, align 1
  ret i32 1
}

; Function Attrs: mustprogress uwtable
define void @_ZN2cv3hal11cvtBGRtoYUVEPKhmPhmiiiibb(ptr noundef %0, i64 noundef %1, ptr noundef %2, i64 noundef %3, i32 noundef %4, i32 noundef %5, i32 noundef %6, i32 noundef %7, i1 noundef zeroext %8, i1 noundef zeroext %9) #0 personality ptr @__gxx_personality_v0 {
  %11 = alloca ptr, align 8
  %12 = alloca i64, align 8
  %13 = alloca ptr, align 8
  %14 = alloca i64, align 8
  %15 = alloca i32, align 4
  %16 = alloca i32, align 4
  %17 = alloca i32, align 4
  %18 = alloca i32, align 4
  %19 = alloca i8, align 1
  %20 = alloca i8, align 1
  %21 = alloca %"class.cv::utils::trace::details::Region", align 8
  %22 = alloca i32, align 4
  %23 = alloca ptr, align 8
  %24 = alloca i32, align 4
  %25 = alloca i32, align 4
  %26 = alloca %"class.std::__cxx11::basic_string", align 8
  store ptr %0, ptr %11, align 8
  store i64 %1, ptr %12, align 8
  store ptr %2, ptr %13, align 8
  store i64 %3, ptr %14, align 8
  store i32 %4, ptr %15, align 4
  store i32 %5, ptr %16, align 4
  store i32 %6, ptr %17, align 4
  store i32 %7, ptr %18, align 4
  %27 = zext i1 %8 to i8
  store i8 %27, ptr %19, align 1
  %28 = zext i1 %9 to i8
  store i8 %28, ptr %20, align 1
  call void @_ZN2cv5utils5trace7details6RegionC1ERKNS3_21LocationStaticStorageE(ptr noundef nonnull align 8 dereferenceable(12) %21, ptr noundef nonnull align 8 dereferenceable(32) @_ZZN2cv3hal11cvtBGRtoYUVEPKhmPhmiiiibbE24__cv_trace_location_fn26)
  %29 = load ptr, ptr %11, align 8
  %30 = load i64, ptr %12, align 8
  %31 = load ptr, ptr %13, align 8
  %32 = load i64, ptr %14, align 8
  %33 = load i32, ptr %15, align 4
  %34 = load i32, ptr %16, align 4
  %35 = load i32, ptr %17, align 4
  %36 = load i32, ptr %18, align 4
  %37 = load i8, ptr %19, align 1
  %38 = trunc i8 %37 to i1
  %39 = load i8, ptr %20, align 1
  %40 = trunc i8 %39 to i1
  %41 = invoke noundef i32 @_Z18hal_ni_cvtBGRtoYUVPKhmPhmiiiibb(ptr noundef %29, i64 noundef %30, ptr noundef %31, i64 noundef %32, i32 noundef %33, i32 noundef %34, i32 noundef %35, i32 noundef %36, i1 noundef zeroext %38, i1 noundef zeroext %40)
          to label %42 unwind label %46

42:                                               ; preds = %10
  store i32 %41, ptr %22, align 4
  %43 = load i32, ptr %22, align 4
  %44 = icmp eq i32 %43, 0
  br i1 %44, label %45, label %50

45:                                               ; preds = %42
  store i32 1, ptr %25, align 4
  br label %77

46:                                               ; preds = %63, %53, %10
  %47 = landingpad { ptr, i32 }
          cleanup
  %48 = extractvalue { ptr, i32 } %47, 0
  store ptr %48, ptr %23, align 8
  %49 = extractvalue { ptr, i32 } %47, 1
  store i32 %49, ptr %24, align 4
  br label %78

50:                                               ; preds = %42
  %51 = load i32, ptr %22, align 4
  %52 = icmp ne i32 %51, 1
  br i1 %52, label %53, label %62

53:                                               ; preds = %50
  %54 = load i32, ptr %22, align 4
  %55 = load i32, ptr %22, align 4
  invoke void (ptr, ptr, ...) @_ZN2cv6formatB5cxx11EPKcz(ptr dead_on_unwind writable sret(%"class.std::__cxx11::basic_string") align 8 %26, ptr noundef @.str.12, i32 noundef %54, i32 noundef %55)
          to label %56 unwind label %46

56:                                               ; preds = %53
  invoke void @_ZN2cv5errorEiRKNSt7__cxx1112basic_stringIcSt11char_traitsIcESaIcEEEPKcS9_i(i32 noundef -3, ptr noundef nonnull align 8 dereferenceable(32) %26, ptr noundef @__func__._ZN2cv3hal11cvtBGRtoYUVEPKhmPhmiiiibb, ptr noundef @.str.11, i32 noundef 28) #12
          to label %57 unwind label %58

57:                                               ; preds = %56
  unreachable

58:                                               ; preds = %56
  %59 = landingpad { ptr, i32 }
          cleanup
  %60 = extractvalue { ptr, i32 } %59, 0
  store ptr %60, ptr %23, align 8
  %61 = extractvalue { ptr, i32 } %59, 1
  store i32 %61, ptr %24, align 4
  call void @_ZNSt7__cxx1112basic_stringIcSt11char_traitsIcESaIcEED1Ev(ptr noundef nonnull align 8 dereferenceable(32) %26) #10
  br label %78

62:                                               ; preds = %50
  br label %63

63:                                               ; preds = %62
  %64 = load ptr, ptr %11, align 8
  %65 = load i64, ptr %12, align 8
  %66 = load ptr, ptr %13, align 8
  %67 = load i64, ptr %14, align 8
  %68 = load i32, ptr %15, align 4
  %69 = load i32, ptr %16, align 4
  %70 = load i32, ptr %17, align 4
  %71 = load i32, ptr %18, align 4
  %72 = load i8, ptr %19, align 1
  %73 = trunc i8 %72 to i1
  %74 = load i8, ptr %20, align 1
  %75 = trunc i8 %74 to i1
  invoke void @_ZN2cv3hal12cpu_baseline11cvtBGRtoYUVEPKhmPhmiiiibb(ptr noundef %64, i64 noundef %65, ptr noundef %66, i64 noundef %67, i32 noundef %68, i32 noundef %69, i32 noundef %70, i32 noundef %71, i1 noundef zeroext %73, i1 noundef zeroext %75)
          to label %76 unwind label %46

76:                                               ; preds = %63
  store i32 1, ptr %25, align 4
  br label %77

77:                                               ; preds = %76, %45
  call void @_ZN2cv5utils5trace7details6RegionD2Ev(ptr noundef nonnull align 8 dereferenceable(12) %21) #10
  ret void

78:                                               ; preds = %58, %46
  call void @_ZN2cv5utils5trace7details6RegionD2Ev(ptr noundef nonnull align 8 dereferenceable(12) %21) #10
  br label %79

79:                                               ; preds = %78
  %80 = load ptr, ptr %23, align 8
  %81 = load i32, ptr %24, align 4
  %82 = insertvalue { ptr, i32 } poison, ptr %80, 0
  %83 = insertvalue { ptr, i32 } %82, i32 %81, 1
  resume { ptr, i32 } %83
}